; Function Attrs: mustprogress uwtable
define hidden void @_ZN2cv3dls16compute_eigenvecERKNS_3MatERS1_S4_S4_S4_(ptr nonnull readnone align 8 captures(none) %0, ptr noundef nonnull align 8 dereferenceable(96) %1, ptr noundef nonnull align 8 dereferenceable(96) %2, ptr noundef nonnull align 8 dereferenceable(96) %3, ptr noundef nonnull align 8 dereferenceable(96) %4, ptr noundef nonnull align 8 dereferenceable(96) %5) local_unnamed_addr #3 align 2 personality ptr @__gxx_personality_v0 {
  %7 = alloca %"class.cv::EigenvalueDecomposition", align 8
  %8 = alloca %"class.cv::_InputArray", align 8
  %9 = alloca %"class.cv::Mat", align 8
  %10 = alloca %"class.cv::Mat", align 8
  %11 = alloca %"class.cv::Mat", align 8
  call void @llvm.lifetime.start.p0(i64 256, ptr nonnull %7) #22
  call void @llvm.lifetime.start.p0(i64 24, ptr nonnull %8) #22
  %12 = getelementptr inbounds nuw i8, ptr %8, i64 16
  store i32 0, ptr %12, align 8, !tbaa !125
  %13 = getelementptr inbounds nuw i8, ptr %8, i64 20
  store i32 0, ptr %13, align 4, !tbaa !126
  store i32 16842752, ptr %8, align 8, !tbaa !79
  %14 = getelementptr inbounds nuw i8, ptr %8, i64 8
  store ptr %1, ptr %14, align 8, !tbaa !82
  %15 = getelementptr inbounds nuw i8, ptr %7, i64 64
  call void @_ZN2cv3MatC1Ev(ptr noundef nonnull align 8 dereferenceable(96) %15) #22
  %16 = getelementptr inbounds nuw i8, ptr %7, i64 160
  call void @_ZN2cv3MatC1Ev(ptr noundef nonnull align 8 dereferenceable(96) %16) #22
  invoke void @_ZN2cv23EigenvalueDecomposition7computeERKNS_11_InputArrayE(ptr noundef nonnull align 8 dereferenceable(256) %7, ptr noundef nonnull align 8 dereferenceable(24) %8)
          to label %_ZN2cv23EigenvalueDecompositionC2ERKNS_11_InputArrayE.exit unwind label %.body

.body:                                            ; preds = %6
  %17 = landingpad { ptr, i32 }
          cleanup
  call void @_ZN2cv3MatD1Ev(ptr noundef nonnull align 8 dereferenceable(96) %16) #22
  call void @_ZN2cv3MatD1Ev(ptr noundef nonnull align 8 dereferenceable(96) %15) #22
  call void @llvm.lifetime.end.p0(i64 24, ptr nonnull %8) #22
  br label %39

_ZN2cv23EigenvalueDecompositionC2ERKNS_11_InputArrayE.exit: ; preds = %6
  call void @llvm.lifetime.end.p0(i64 24, ptr nonnull %8) #22
  call void @llvm.lifetime.start.p0(i64 96, ptr nonnull %9) #22
  invoke void @_ZN2cv3MatC1ERKS0_(ptr noundef nonnull align 8 dereferenceable(96) %9, ptr noundef nonnull align 8 dereferenceable(96) %15)
          to label %_ZN2cv23EigenvalueDecomposition11eigenvaluesEv.exit unwind label %26

_ZN2cv23EigenvalueDecomposition11eigenvaluesEv.exit: ; preds = %_ZN2cv23EigenvalueDecompositionC2ERKNS_11_InputArrayE.exit
  %18 = invoke noundef nonnull align 8 dereferenceable(96) ptr @_ZN2cv3MataSEOS0_(ptr noundef nonnull align 8 dereferenceable(96) %2, ptr noundef nonnull align 8 dereferenceable(96) %9)
          to label %19 unwind label %28

19:                                               ; preds = %_ZN2cv23EigenvalueDecomposition11eigenvaluesEv.exit
  call void @_ZN2cv3MatD1Ev(ptr noundef nonnull align 8 dereferenceable(96) %9) #22
  call void @llvm.lifetime.end.p0(i64 96, ptr nonnull %9) #22
  call void @llvm.lifetime.start.p0(i64 96, ptr nonnull %10) #22
  invoke void @_ZN2cv3MatC1ERKS0_(ptr noundef nonnull align 8 dereferenceable(96) %10, ptr noundef nonnull align 8 dereferenceable(96) %16)
          to label %_ZN2cv23EigenvalueDecomposition12eigenvectorsEv.exit unwind label %31

_ZN2cv23EigenvalueDecomposition12eigenvectorsEv.exit: ; preds = %19
  %20 = invoke noundef nonnull align 8 dereferenceable(96) ptr @_ZN2cv3MataSEOS0_(ptr noundef nonnull align 8 dereferenceable(96) %4, ptr noundef nonnull align 8 dereferenceable(96) %10)
          to label %21 unwind label %33

21:                                               ; preds = %_ZN2cv23EigenvalueDecomposition12eigenvectorsEv.exit
  call void @_ZN2cv3MatD1Ev(ptr noundef nonnull align 8 dereferenceable(96) %10) #22
  call void @llvm.lifetime.end.p0(i64 96, ptr nonnull %10) #22
  call void @llvm.lifetime.start.p0(i64 96, ptr nonnull %11) #22
  call void @_ZN2cv3MatC1Ev(ptr noundef nonnull align 8 dereferenceable(96) %11) #22
  %22 = invoke noundef nonnull align 8 dereferenceable(96) ptr @_ZN2cv3MataSEOS0_(ptr noundef nonnull align 8 dereferenceable(96) %5, ptr noundef nonnull align 8 dereferenceable(96) %11)
          to label %23 unwind label %36

23:                                               ; preds = %21
  %24 = invoke noundef nonnull align 8 dereferenceable(96) ptr @_ZN2cv3MataSERKS0_(ptr noundef nonnull align 8 dereferenceable(96) %3, ptr noundef nonnull align 8 dereferenceable(96) %22)
          to label %25 unwind label %36

25:                                               ; preds = %23
  call void @_ZN2cv3MatD1Ev(ptr noundef nonnull align 8 dereferenceable(96) %11) #22
  call void @llvm.lifetime.end.p0(i64 96, ptr nonnull %11) #22
  call void @_ZN2cv3MatD1Ev(ptr noundef nonnull align 8 dereferenceable(96) %16) #22
  call void @_ZN2cv3MatD1Ev(ptr noundef nonnull align 8 dereferenceable(96) %15) #22
  call void @llvm.lifetime.end.p0(i64 256, ptr nonnull %7) #22
  ret void

26:                                               ; preds = %_ZN2cv23EigenvalueDecompositionC2ERKNS_11_InputArrayE.exit
  %27 = landingpad { ptr, i32 }
          cleanup
  br label %30

28:                                               ; preds = %_ZN2cv23EigenvalueDecomposition11eigenvaluesEv.exit
  %29 = landingpad { ptr, i32 }
          cleanup
  call void @_ZN2cv3MatD1Ev(ptr noundef nonnull align 8 dereferenceable(96) %9) #22
  br label %30

30:                                               ; preds = %28, %26
  %.pn = phi { ptr, i32 } [ %29, %28 ], [ %27, %26 ]
  call void @llvm.lifetime.end.p0(i64 96, ptr nonnull %9) #22
  br label %38

31:                                               ; preds = %19
  %32 = landingpad { ptr, i32 }
          cleanup
  br label %35

33:                                               ; preds = %_ZN2cv23EigenvalueDecomposition12eigenvectorsEv.exit
  %34 = landingpad { ptr, i32 }
          cleanup
  call void @_ZN2cv3MatD1Ev(ptr noundef nonnull align 8 dereferenceable(96) %10) #22
  br label %35

35:                                               ; preds = %33, %31
  %.pn11 = phi { ptr, i32 } [ %34, %33 ], [ %32, %31 ]
  call void @llvm.lifetime.end.p0(i64 96, ptr nonnull %10) #22
  br label %38

36:                                               ; preds = %23, %21
  %37 = landingpad { ptr, i32 }
          cleanup
  call void @_ZN2cv3MatD1Ev(ptr noundef nonnull align 8 dereferenceable(96) %11) #22
  call void @llvm.lifetime.end.p0(i64 96, ptr nonnull %11) #22
  br label %38

38:                                               ; preds = %36, %35, %30
  %.pn13 = phi { ptr, i32 } [ %37, %36 ], [ %.pn11, %35 ], [ %.pn, %30 ]
  call void @_ZN2cv3MatD1Ev(ptr noundef nonnull align 8 dereferenceable(96) %16) #22
  call void @_ZN2cv3MatD1Ev(ptr noundef nonnull align 8 dereferenceable(96) %15) #22
  br label %39

39:                                               ; preds = %38, %.body
  %.pn13.pn = phi { ptr, i32 } [ %.pn13, %38 ], [ %17, %.body ]
  call void @llvm.lifetime.end.p0(i64 256, ptr nonnull %7) #22
  resume { ptr, i32 } %.pn13.pn
}